target datalayout = "e-m:e-p270:32:32-p271:32:32-p272:64:64-i64:64-i128:128-f80:128-n8:16:32:64-S128"
target triple = "x86_64-pc-linux-gnu"

%struct.jpeg_decompress_struct = type { ptr, ptr, ptr, ptr, i32, i32, ptr, i32, i32, i32, i32, i32, i32, i32, double, i32, i32, i32, i32, i32, i32, i32, i32, i32, i32, i32, i32, i32, i32, i32, i32, i32, i32, ptr, i32, i32, i32, i32, i32, ptr, [4 x ptr], [4 x ptr], [4 x ptr], i32, ptr, i32, i32, [16 x i8], [16 x i8], [16 x i8], i32, i32, i8, i8, i8, i16, i16, i32, i8, i32, ptr, i32, i32, i32, i32, ptr, i32, [4 x ptr], i32, i32, i32, [10 x i32], i32, i32, i32, i32, i32, ptr, ptr, ptr, ptr, ptr, ptr, ptr, ptr, ptr, ptr, ptr }
%struct.jpeg_error_mgr = type { ptr, ptr, ptr, ptr, ptr, i32, %union.anon, i32, i64, ptr, i32, ptr, i32, i32 }
%union.anon = type { [8 x i32], [48 x i8] }

; Function Attrs: nounwind uwtable
define i32 @jpeg_read_header(ptr noundef %0, i32 noundef %1) #0 {
  %3 = alloca ptr, align 8
  %4 = alloca i32, align 4
  %5 = alloca i32, align 4
  store ptr %0, ptr %3, align 8, !tbaa !3
  store i32 %1, ptr %4, align 4, !tbaa !8
  call void @llvm.lifetime.start.p0(i64 4, ptr %5) #4
  %6 = load ptr, ptr %3, align 8, !tbaa !3
  %7 = getelementptr inbounds nuw %struct.jpeg_decompress_struct, ptr %6, i32 0, i32 5
  %8 = load i32, ptr %7, align 4, !tbaa !51
  %9 = icmp ne i32 %8, 200
  br i1 %9, label %10, label %34

10:                                               ; preds = %2
  %11 = load ptr, ptr %3, align 8, !tbaa !3
  %12 = getelementptr inbounds nuw %struct.jpeg_decompress_struct, ptr %11, i32 0, i32 5
  %13 = load i32, ptr %12, align 4, !tbaa !51
  %14 = icmp ne i32 %13, 201
  br i1 %14, label %15, label %34

15:                                               ; preds = %10
  %16 = load ptr, ptr %3, align 8, !tbaa !3
  %17 = getelementptr inbounds nuw %struct.jpeg_decompress_struct, ptr %16, i32 0, i32 0
  %18 = load ptr, ptr %17, align 8, !tbaa !35
  %19 = getelementptr inbounds nuw %struct.jpeg_error_mgr, ptr %18, i32 0, i32 5
  store i32 20, ptr %19, align 8, !tbaa !36
  %20 = load ptr, ptr %3, align 8, !tbaa !3
  %21 = getelementptr inbounds nuw %struct.jpeg_decompress_struct, ptr %20, i32 0, i32 5
  %22 = load i32, ptr %21, align 4, !tbaa !51
  %23 = load ptr, ptr %3, align 8, !tbaa !3
  %24 = getelementptr inbounds nuw %struct.jpeg_decompress_struct, ptr %23, i32 0, i32 0
  %25 = load ptr, ptr %24, align 8, !tbaa !35
  %26 = getelementptr inbounds nuw %struct.jpeg_error_mgr, ptr %25, i32 0, i32 6
  %27 = getelementptr inbounds [8 x i32], ptr %26, i64 0, i64 0
  store i32 %22, ptr %27, align 4, !tbaa !38
  %28 = load ptr, ptr %3, align 8, !tbaa !3
  %29 = getelementptr inbounds nuw %struct.jpeg_decompress_struct, ptr %28, i32 0, i32 0
  %30 = load ptr, ptr %29, align 8, !tbaa !35
  %31 = getelementptr inbounds nuw %struct.jpeg_error_mgr, ptr %30, i32 0, i32 0
  %32 = load ptr, ptr %31, align 8, !tbaa !39
  %33 = load ptr, ptr %3, align 8, !tbaa !3
  call void %32(ptr noundef %33)
  br label %34

34:                                               ; preds = %15, %10, %2
  %35 = load ptr, ptr %3, align 8, !tbaa !3
  %36 = call i32 @jpeg_consume_input(ptr noundef %35)
  store i32 %36, ptr %5, align 4, !tbaa !8
  %37 = load i32, ptr %5, align 4, !tbaa !8
  switch i32 %37, label %55 [
    i32 1, label %38
    i32 2, label %39
    i32 0, label %55
  ]

38:                                               ; preds = %34
  store i32 1, ptr %5, align 4, !tbaa !8
  br label %55

39:                                               ; preds = %34
  %40 = load i32, ptr %4, align 4, !tbaa !8
  %41 = icmp ne i32 %40, 0
  br i1 %41, label %42, label %53

42:                                               ; preds = %39
  %43 = load ptr, ptr %3, align 8, !tbaa !3
  %44 = getelementptr inbounds nuw %struct.jpeg_decompress_struct, ptr %43, i32 0, i32 0
  %45 = load ptr, ptr %44, align 8, !tbaa !35
  %46 = getelementptr inbounds nuw %struct.jpeg_error_mgr, ptr %45, i32 0, i32 5
  store i32 51, ptr %46, align 8, !tbaa !36
  %47 = load ptr, ptr %3, align 8, !tbaa !3
  %48 = getelementptr inbounds nuw %struct.jpeg_decompress_struct, ptr %47, i32 0, i32 0
  %49 = load ptr, ptr %48, align 8, !tbaa !35
  %50 = getelementptr inbounds nuw %struct.jpeg_error_mgr, ptr %49, i32 0, i32 0
  %51 = load ptr, ptr %50, align 8, !tbaa !39
  %52 = load ptr, ptr %3, align 8, !tbaa !3
  call void %51(ptr noundef %52)
  br label %53

53:                                               ; preds = %42, %39
  %54 = load ptr, ptr %3, align 8, !tbaa !3
  call void @jpeg_abort(ptr noundef %54)
  store i32 2, ptr %5, align 4, !tbaa !8
  br label %55

55:                                               ; preds = %34, %34, %53, %38
  %56 = load i32, ptr %5, align 4, !tbaa !8
  call void @llvm.lifetime.end.p0(i64 4, ptr %5) #4
  ret i32 %56
}