; Function Attrs: nounwind uwtable
define i32 @jpeg_read_header(ptr noundef %0, i32 noundef %1) local_unnamed_addr #0 {
  %3 = getelementptr inbounds nuw i8, ptr %0, i64 36
  %4 = load i32, ptr %3, align 4, !tbaa !42
  %5 = and i32 %4, -2
  %switch = icmp eq i32 %5, 200
  br i1 %switch, label %12, label %6

6:                                                ; preds = %2
  %7 = load ptr, ptr %0, align 8, !tbaa !30
  %8 = getelementptr inbounds nuw i8, ptr %7, i64 40
  store i32 20, ptr %8, align 8, !tbaa !31
  %9 = getelementptr inbounds nuw i8, ptr %7, i64 44
  store i32 %4, ptr %9, align 4, !tbaa !34
  %10 = load ptr, ptr %0, align 8, !tbaa !30
  %11 = load ptr, ptr %10, align 8, !tbaa !35
  tail call void %11(ptr noundef nonnull %0) #3
  br label %12

12:                                               ; preds = %2, %6
  %13 = tail call i32 @jpeg_consume_input(ptr noundef nonnull %0)
  %cond = icmp eq i32 %13, 2
  br i1 %cond, label %14, label %20

14:                                               ; preds = %12
  %.not16 = icmp eq i32 %1, 0
  br i1 %.not16, label %19, label %15

15:                                               ; preds = %14
  %16 = load ptr, ptr %0, align 8, !tbaa !30
  %17 = getelementptr inbounds nuw i8, ptr %16, i64 40
  store i32 51, ptr %17, align 8, !tbaa !31
  %18 = load ptr, ptr %16, align 8, !tbaa !35
  tail call void %18(ptr noundef nonnull %0) #3
  br label %19

19:                                               ; preds = %15, %14
  tail call void @jpeg_abort(ptr noundef nonnull %0) #3
  br label %20

20:                                               ; preds = %12, %19
  ret i32 %13
}